; Function Attrs: mustprogress uwtable
define internal noundef ptr @"_ZNSt17_Function_handlerIFP4exprP10quantifierjEZN1q6solver10specializeES3_E3$_0E9_M_invokeERKSt9_Any_dataOS3_Oj"(ptr nocapture noundef nonnull readonly align 8 dereferenceable(16) %__functor, ptr nocapture noundef nonnull readonly align 8 dereferenceable(8) %__args, ptr nocapture noundef nonnull readonly align 4 dereferenceable(4) %__args1) #3 align 2 {
entry:
  %call.val = load ptr, ptr %__functor, align 8
  %__args.val = load ptr, ptr %__args, align 8
  %__args1.val = load i32, ptr %__args1, align 4
  %m_patterns_decls.i.i.i.i.i = getelementptr inbounds i8, ptr %__args.val, i64 80
  %idxprom.i.i.i.i = zext i32 %__args1.val to i64
  %arrayidx.i.i.i.i = getelementptr inbounds ptr, ptr %m_patterns_decls.i.i.i.i.i, i64 %idxprom.i.i.i.i
  %0 = load ptr, ptr %arrayidx.i.i.i.i, align 8
  %call2.i.i.i = tail call noundef ptr @_ZN1q6solver8get_unitEP4sort(ptr noundef nonnull align 8 dereferenceable(3144) %call.val, ptr noundef %0)
  ret ptr %call2.i.i.i
}